target datalayout = "e-m:e-p270:32:32-p271:32:32-p272:64:64-i64:64-i128:128-f80:128-n8:16:32:64-S128"
target triple = "x86_64-pc-linux-gnu"

%struct.strbuf = type { i64, i64, ptr }
%struct.midx_snapshot_ref_data = type { ptr, %struct.oidset, i32 }
%struct.oidset = type { %struct.kh_oid_set }
%struct.kh_oid_set = type { i32, i32, i32, i32, ptr, ptr, ptr }
%struct.object_id = type { [32 x i8], i32 }
%struct.tempfile = type { %struct.volatile_list_head, i32, ptr, i32, %struct.strbuf, ptr }
%struct.volatile_list_head = type { ptr, ptr }

@the_repository = external global ptr, align 8
@.str.111 = private unnamed_addr constant [1 x i8] zeroinitializer, align 1
@.str.114 = private unnamed_addr constant [6 x i8] c"%s%s\0A\00", align 1
@.str.115 = private unnamed_addr constant [2 x i8] c"+\00", align 1

; Function Attrs: nounwind uwtable
define internal i32 @midx_snapshot_ref_one(ptr noundef %0, ptr noundef %1, ptr noundef %2, i32 noundef %3, ptr noundef %4) #0 {
  %6 = alloca i32, align 4
  %7 = alloca ptr, align 8
  %8 = alloca ptr, align 8
  %9 = alloca ptr, align 8
  %10 = alloca i32, align 4
  %11 = alloca ptr, align 8
  %12 = alloca ptr, align 8
  %13 = alloca %struct.object_id, align 4
  %14 = alloca i32, align 4
  store ptr %0, ptr %7, align 8, !tbaa !11
  store ptr %1, ptr %8, align 8, !tbaa !11
  store ptr %2, ptr %9, align 8, !tbaa !161
  store i32 %3, ptr %10, align 4, !tbaa !4
  store ptr %4, ptr %11, align 8, !tbaa !97
  call void @llvm.lifetime.start.p0(i64 8, ptr %12) #10
  %15 = load ptr, ptr %11, align 8, !tbaa !97
  store ptr %15, ptr %12, align 8, !tbaa !162
  call void @llvm.lifetime.start.p0(i64 36, ptr %13) #10
  %16 = load ptr, ptr @the_repository, align 8, !tbaa !13
  %17 = load ptr, ptr %9, align 8, !tbaa !161
  %18 = call i32 @peel_iterated_oid(ptr noundef %16, ptr noundef %17, ptr noundef %13)
  %19 = icmp ne i32 %18, 0
  br i1 %19, label %21, label %20

20:                                               ; preds = %5
  store ptr %13, ptr %9, align 8, !tbaa !161
  br label %21

21:                                               ; preds = %20, %5
  %22 = load ptr, ptr %12, align 8, !tbaa !162
  %23 = getelementptr inbounds nuw %struct.midx_snapshot_ref_data, ptr %22, i32 0, i32 1
  %24 = load ptr, ptr %9, align 8, !tbaa !161
  %25 = call i32 @oidset_insert(ptr noundef %23, ptr noundef %24)
  %26 = icmp ne i32 %25, 0
  br i1 %26, label %27, label %28

27:                                               ; preds = %21
  store i32 0, ptr %6, align 4
  store i32 1, ptr %14, align 4
  br label %48

28:                                               ; preds = %21
  %29 = load ptr, ptr @the_repository, align 8, !tbaa !13
  %30 = load ptr, ptr %9, align 8, !tbaa !161
  %31 = call i32 @oid_object_info(ptr noundef %29, ptr noundef %30, ptr noundef null)
  %32 = icmp ne i32 %31, 1
  br i1 %32, label %33, label %34

33:                                               ; preds = %28
  store i32 0, ptr %6, align 4
  store i32 1, ptr %14, align 4
  br label %48

34:                                               ; preds = %28
  %35 = load ptr, ptr %12, align 8, !tbaa !162
  %36 = getelementptr inbounds nuw %struct.midx_snapshot_ref_data, ptr %35, i32 0, i32 0
  %37 = load ptr, ptr %36, align 8, !tbaa !105
  %38 = getelementptr inbounds nuw %struct.tempfile, ptr %37, i32 0, i32 2
  %39 = load volatile ptr, ptr %38, align 8, !tbaa !164
  %40 = load ptr, ptr %12, align 8, !tbaa !162
  %41 = getelementptr inbounds nuw %struct.midx_snapshot_ref_data, ptr %40, i32 0, i32 2
  %42 = load i32, ptr %41, align 8, !tbaa !111
  %43 = icmp ne i32 %42, 0
  %44 = select i1 %43, ptr @.str.115, ptr @.str.111
  %45 = load ptr, ptr %9, align 8, !tbaa !161
  %46 = call ptr @oid_to_hex(ptr noundef %45)
  %47 = call i32 (ptr, ptr, ...) @fprintf(ptr noundef %39, ptr noundef @.str.114, ptr noundef %44, ptr noundef %46) #10
  store i32 0, ptr %6, align 4
  store i32 1, ptr %14, align 4
  br label %48

48:                                               ; preds = %34, %33, %27
  call void @llvm.lifetime.end.p0(i64 36, ptr %13) #10
  call void @llvm.lifetime.end.p0(i64 8, ptr %12) #10
  %49 = load i32, ptr %6, align 4
  ret i32 %49
}