; Function Attrs: nounwind uwtable
define internal noundef i32 @midx_snapshot_ref_one(ptr readnone captures(none) %0, ptr readnone captures(none) %1, ptr noundef %2, i32 %3, ptr noundef %4) #0 {
  %6 = alloca %struct.object_id, align 4
  call void @llvm.lifetime.start.p0(i64 36, ptr nonnull %6) #16
  %7 = load ptr, ptr @the_repository, align 8, !tbaa !22
  %8 = call i32 @peel_iterated_oid(ptr noundef %7, ptr noundef %2, ptr noundef nonnull %6) #16
  %.not = icmp eq i32 %8, 0
  %spec.select = select i1 %.not, ptr %6, ptr %2
  %9 = getelementptr inbounds nuw i8, ptr %4, i64 8
  %10 = call i32 @oidset_insert(ptr noundef nonnull %9, ptr noundef %spec.select) #16
  %.not9 = icmp eq i32 %10, 0
  br i1 %.not9, label %11, label %23

11:                                               ; preds = %5
  %12 = load ptr, ptr @the_repository, align 8, !tbaa !22
  %13 = call i32 @oid_object_info(ptr noundef %12, ptr noundef %spec.select, ptr noundef null) #16
  %.not10 = icmp eq i32 %13, 1
  br i1 %.not10, label %14, label %23

14:                                               ; preds = %11
  %15 = load ptr, ptr %4, align 8, !tbaa !35
  %16 = getelementptr inbounds nuw i8, ptr %15, i64 24
  %17 = load volatile ptr, ptr %16, align 8, !tbaa !126
  %18 = getelementptr inbounds nuw i8, ptr %4, i64 48
  %19 = load i32, ptr %18, align 8, !tbaa !41
  %.not11 = icmp eq i32 %19, 0
  %20 = select i1 %.not11, ptr @.str.111, ptr @.str.115
  %21 = call ptr @oid_to_hex(ptr noundef %spec.select) #16
  %22 = call i32 (ptr, ptr, ...) @fprintf(ptr noundef %17, ptr noundef nonnull @.str.114, ptr noundef nonnull %20, ptr noundef %21) #16
  br label %23

23:                                               ; preds = %11, %5, %14
  call void @llvm.lifetime.end.p0(i64 36, ptr nonnull %6) #16
  ret i32 0
}